target datalayout = "e-m:e-p270:32:32-p271:32:32-p272:64:64-i64:64-i128:128-f80:128-n8:16:32:64-S128"
target triple = "x86_64-pc-linux-gnu"

%"class.LIEF::PE::ResourceFixedFileInfo" = type { %"class.LIEF::Object", i32, i32, i32, i32, i32, i32, i32, i32, i64, i64, i64, i32, i32 }
%"class.LIEF::Object" = type { ptr }
%"struct.LIEF::PE::details::pe_resource_fixed_file_info" = type { i32, i32, i32, i32, i32, i32, i32, i32, i32, i32, i32, i32, i32 }

; Function Attrs: mustprogress uwtable
define void @_ZN4LIEF2PE21ResourceFixedFileInfoC2ERKNS0_7details27pe_resource_fixed_file_infoE(ptr noundef nonnull align 8 dereferenceable(72) %0, ptr noundef nonnull align 1 dereferenceable(52) %1) unnamed_addr #0 align 2 {
  %3 = alloca ptr, align 8
  %4 = alloca ptr, align 8
  store ptr %0, ptr %3, align 8
  store ptr %1, ptr %4, align 8
  %5 = load ptr, ptr %3, align 8
  call void @_ZN4LIEF6ObjectC2Ev(ptr noundef nonnull align 8 dereferenceable(8) %5)
  store ptr getelementptr inbounds ({ [7 x ptr] }, ptr @_ZTVN4LIEF2PE21ResourceFixedFileInfoE, i32 0, i32 0, i32 2), ptr %5, align 8
  %6 = getelementptr inbounds %"class.LIEF::PE::ResourceFixedFileInfo", ptr %5, i32 0, i32 1
  %7 = load ptr, ptr %4, align 8
  %8 = getelementptr inbounds %"struct.LIEF::PE::details::pe_resource_fixed_file_info", ptr %7, i32 0, i32 0
  %9 = load i32, ptr %8, align 1
  store i32 %9, ptr %6, align 8
  %10 = getelementptr inbounds %"class.LIEF::PE::ResourceFixedFileInfo", ptr %5, i32 0, i32 2
  %11 = load ptr, ptr %4, align 8
  %12 = getelementptr inbounds %"struct.LIEF::PE::details::pe_resource_fixed_file_info", ptr %11, i32 0, i32 1
  %13 = load i32, ptr %12, align 1
  store i32 %13, ptr %10, align 4
  %14 = getelementptr inbounds %"class.LIEF::PE::ResourceFixedFileInfo", ptr %5, i32 0, i32 3
  %15 = load ptr, ptr %4, align 8
  %16 = getelementptr inbounds %"struct.LIEF::PE::details::pe_resource_fixed_file_info", ptr %15, i32 0, i32 2
  %17 = load i32, ptr %16, align 1
  store i32 %17, ptr %14, align 8
  %18 = getelementptr inbounds %"class.LIEF::PE::ResourceFixedFileInfo", ptr %5, i32 0, i32 4
  %19 = load ptr, ptr %4, align 8
  %20 = getelementptr inbounds %"struct.LIEF::PE::details::pe_resource_fixed_file_info", ptr %19, i32 0, i32 3
  %21 = load i32, ptr %20, align 1
  store i32 %21, ptr %18, align 4
  %22 = getelementptr inbounds %"class.LIEF::PE::ResourceFixedFileInfo", ptr %5, i32 0, i32 5
  %23 = load ptr, ptr %4, align 8
  %24 = getelementptr inbounds %"struct.LIEF::PE::details::pe_resource_fixed_file_info", ptr %23, i32 0, i32 4
  %25 = load i32, ptr %24, align 1
  store i32 %25, ptr %22, align 8
  %26 = getelementptr inbounds %"class.LIEF::PE::ResourceFixedFileInfo", ptr %5, i32 0, i32 6
  %27 = load ptr, ptr %4, align 8
  %28 = getelementptr inbounds %"struct.LIEF::PE::details::pe_resource_fixed_file_info", ptr %27, i32 0, i32 5
  %29 = load i32, ptr %28, align 1
  store i32 %29, ptr %26, align 4
  %30 = getelementptr inbounds %"class.LIEF::PE::ResourceFixedFileInfo", ptr %5, i32 0, i32 7
  %31 = load ptr, ptr %4, align 8
  %32 = getelementptr inbounds %"struct.LIEF::PE::details::pe_resource_fixed_file_info", ptr %31, i32 0, i32 6
  %33 = load i32, ptr %32, align 1
  store i32 %33, ptr %30, align 8
  %34 = getelementptr inbounds %"class.LIEF::PE::ResourceFixedFileInfo", ptr %5, i32 0, i32 8
  %35 = load ptr, ptr %4, align 8
  %36 = getelementptr inbounds %"struct.LIEF::PE::details::pe_resource_fixed_file_info", ptr %35, i32 0, i32 7
  %37 = load i32, ptr %36, align 1
  store i32 %37, ptr %34, align 4
  %38 = getelementptr inbounds %"class.LIEF::PE::ResourceFixedFileInfo", ptr %5, i32 0, i32 9
  %39 = load ptr, ptr %4, align 8
  %40 = getelementptr inbounds %"struct.LIEF::PE::details::pe_resource_fixed_file_info", ptr %39, i32 0, i32 8
  %41 = load i32, ptr %40, align 1
  %42 = zext i32 %41 to i64
  store i64 %42, ptr %38, align 8
  %43 = getelementptr inbounds %"class.LIEF::PE::ResourceFixedFileInfo", ptr %5, i32 0, i32 10
  %44 = load ptr, ptr %4, align 8
  %45 = getelementptr inbounds %"struct.LIEF::PE::details::pe_resource_fixed_file_info", ptr %44, i32 0, i32 9
  %46 = load i32, ptr %45, align 1
  %47 = zext i32 %46 to i64
  store i64 %47, ptr %43, align 8
  %48 = getelementptr inbounds %"class.LIEF::PE::ResourceFixedFileInfo", ptr %5, i32 0, i32 11
  %49 = load ptr, ptr %4, align 8
  %50 = getelementptr inbounds %"struct.LIEF::PE::details::pe_resource_fixed_file_info", ptr %49, i32 0, i32 10
  %51 = load i32, ptr %50, align 1
  %52 = zext i32 %51 to i64
  store i64 %52, ptr %48, align 8
  %53 = getelementptr inbounds %"class.LIEF::PE::ResourceFixedFileInfo", ptr %5, i32 0, i32 12
  %54 = load ptr, ptr %4, align 8
  %55 = getelementptr inbounds %"struct.LIEF::PE::details::pe_resource_fixed_file_info", ptr %54, i32 0, i32 11
  %56 = load i32, ptr %55, align 1
  store i32 %56, ptr %53, align 8
  %57 = getelementptr inbounds %"class.LIEF::PE::ResourceFixedFileInfo", ptr %5, i32 0, i32 13
  %58 = load ptr, ptr %4, align 8
  %59 = getelementptr inbounds %"struct.LIEF::PE::details::pe_resource_fixed_file_info", ptr %58, i32 0, i32 12
  %60 = load i32, ptr %59, align 1
  store i32 %60, ptr %57, align 4
  ret void
}