; Function Attrs: mustprogress uwtable
define void @_ZN4LIEF2PE21ResourceFixedFileInfoC2ERKNS0_7details27pe_resource_fixed_file_infoE(ptr noundef nonnull align 8 dereferenceable(72) %0, ptr nocapture noundef nonnull readonly align 1 dereferenceable(52) %1) unnamed_addr #0 align 2 {
  tail call void @_ZN4LIEF6ObjectC2Ev(ptr noundef nonnull align 8 dereferenceable(8) %0)
  store ptr getelementptr inbounds ({ [7 x ptr] }, ptr @_ZTVN4LIEF2PE21ResourceFixedFileInfoE, i64 0, i32 0, i64 2), ptr %0, align 8
  %3 = getelementptr inbounds i8, ptr %0, i64 8
  %4 = load i32, ptr %1, align 1
  store i32 %4, ptr %3, align 8
  %5 = getelementptr inbounds i8, ptr %0, i64 12
  %6 = getelementptr inbounds i8, ptr %1, i64 4
  %7 = load i32, ptr %6, align 1
  store i32 %7, ptr %5, align 4
  %8 = getelementptr inbounds i8, ptr %0, i64 16
  %9 = getelementptr inbounds i8, ptr %1, i64 8
  %10 = load i32, ptr %9, align 1
  store i32 %10, ptr %8, align 8
  %11 = getelementptr inbounds i8, ptr %0, i64 20
  %12 = getelementptr inbounds i8, ptr %1, i64 12
  %13 = load i32, ptr %12, align 1
  store i32 %13, ptr %11, align 4
  %14 = getelementptr inbounds i8, ptr %0, i64 24
  %15 = getelementptr inbounds i8, ptr %1, i64 16
  %16 = load i32, ptr %15, align 1
  store i32 %16, ptr %14, align 8
  %17 = getelementptr inbounds i8, ptr %0, i64 28
  %18 = getelementptr inbounds i8, ptr %1, i64 20
  %19 = load i32, ptr %18, align 1
  store i32 %19, ptr %17, align 4
  %20 = getelementptr inbounds i8, ptr %0, i64 32
  %21 = getelementptr inbounds i8, ptr %1, i64 24
  %22 = load i32, ptr %21, align 1
  store i32 %22, ptr %20, align 8
  %23 = getelementptr inbounds i8, ptr %0, i64 36
  %24 = getelementptr inbounds i8, ptr %1, i64 28
  %25 = load i32, ptr %24, align 1
  store i32 %25, ptr %23, align 4
  %26 = getelementptr inbounds i8, ptr %0, i64 40
  %27 = getelementptr inbounds i8, ptr %1, i64 32
  %28 = load i32, ptr %27, align 1
  %29 = zext i32 %28 to i64
  store i64 %29, ptr %26, align 8
  %30 = getelementptr inbounds i8, ptr %0, i64 48
  %31 = getelementptr inbounds i8, ptr %1, i64 36
  %32 = load i32, ptr %31, align 1
  %33 = zext i32 %32 to i64
  store i64 %33, ptr %30, align 8
  %34 = getelementptr inbounds i8, ptr %0, i64 56
  %35 = getelementptr inbounds i8, ptr %1, i64 40
  %36 = load i32, ptr %35, align 1
  %37 = zext i32 %36 to i64
  store i64 %37, ptr %34, align 8
  %38 = getelementptr inbounds i8, ptr %0, i64 64
  %39 = getelementptr inbounds i8, ptr %1, i64 44
  %40 = load i32, ptr %39, align 1
  store i32 %40, ptr %38, align 8
  %41 = getelementptr inbounds i8, ptr %0, i64 68
  %42 = getelementptr inbounds i8, ptr %1, i64 48
  %43 = load i32, ptr %42, align 1
  store i32 %43, ptr %41, align 4
  ret void
}